; Function Attrs: nounwind uwtable
define ptr @l_Lean_Server_FileWorker_queueRequest___boxed(ptr noundef %0, ptr noundef %1, ptr noundef %2, ptr noundef %3, ptr noundef %4) local_unnamed_addr #0 {
  tail call void @lean_inc_heartbeat() #7
  %6 = tail call noalias ptr @mi_malloc_small(i64 noundef 40) #7
  %7 = icmp eq ptr %6, null
  br i1 %7, label %8, label %l_Lean_Server_FileWorker_queueRequest.exit

8:                                                ; preds = %5
  tail call void @lean_internal_panic_out_of_memory() #8
  unreachable

l_Lean_Server_FileWorker_queueRequest.exit:       ; preds = %5
  %9 = getelementptr inbounds nuw i8, ptr %6, i64 4
  store i32 1, ptr %6, align 4, !tbaa !10
  store i32 -184549336, ptr %9, align 4
  %10 = getelementptr inbounds nuw i8, ptr %6, i64 8
  store ptr @l_Lean_Server_FileWorker_queueRequest___lambda__1, ptr %10, align 8, !tbaa !4
  %11 = getelementptr inbounds nuw i8, ptr %6, i64 16
  store i16 3, ptr %11, align 8, !tbaa !15
  %12 = getelementptr inbounds nuw i8, ptr %6, i64 18
  store i16 2, ptr %12, align 2, !tbaa !15
  %13 = getelementptr inbounds nuw i8, ptr %6, i64 24
  store ptr %0, ptr %13, align 8, !tbaa !4
  %14 = getelementptr inbounds nuw i8, ptr %6, i64 32
  store ptr %1, ptr %14, align 8, !tbaa !4
  %15 = tail call ptr @l_Lean_Server_FileWorker_updatePendingRequests(ptr noundef nonnull %6, ptr readnone poison, ptr noundef %3, ptr noundef %4)
  %16 = ptrtoint ptr %3 to i64
  %17 = and i64 %16, 1
  %.not = icmp eq i64 %17, 0
  br i1 %.not, label %18, label %lean_dec.exit8

18:                                               ; preds = %l_Lean_Server_FileWorker_queueRequest.exit
  %19 = load i32, ptr %3, align 4, !tbaa !10
  %20 = icmp sgt i32 %19, 1
  br i1 %20, label %21, label %23, !prof !13

21:                                               ; preds = %18
  %22 = add nsw i32 %19, -1
  store i32 %22, ptr %3, align 4, !tbaa !10
  br label %lean_dec.exit8

23:                                               ; preds = %18
  %.not.i = icmp eq i32 %19, 0
  br i1 %.not.i, label %lean_dec.exit8, label %24

24:                                               ; preds = %23
  tail call void @lean_dec_ref_cold(ptr noundef nonnull %3) #7
  br label %lean_dec.exit8

lean_dec.exit8:                                   ; preds = %24, %23, %21, %l_Lean_Server_FileWorker_queueRequest.exit
  %25 = ptrtoint ptr %2 to i64
  %26 = and i64 %25, 1
  %.not11 = icmp eq i64 %26, 0
  br i1 %.not11, label %27, label %lean_dec.exit

27:                                               ; preds = %lean_dec.exit8
  %28 = load i32, ptr %2, align 4, !tbaa !10
  %29 = icmp sgt i32 %28, 1
  br i1 %29, label %30, label %32, !prof !13

30:                                               ; preds = %27
  %31 = add nsw i32 %28, -1
  store i32 %31, ptr %2, align 4, !tbaa !10
  br label %lean_dec.exit

32:                                               ; preds = %27
  %.not.i9 = icmp eq i32 %28, 0
  br i1 %.not.i9, label %lean_dec.exit, label %33

33:                                               ; preds = %32
  tail call void @lean_dec_ref_cold(ptr noundef nonnull %2) #7
  br label %lean_dec.exit

lean_dec.exit:                                    ; preds = %33, %32, %30, %lean_dec.exit8
  ret ptr %15
}